target datalayout = "e-m:e-p270:32:32-p271:32:32-p272:64:64-i64:64-i128:128-f80:128-n8:16:32:64-S128"
target triple = "x86_64-pc-linux-gnu"

%class.b3PrefixScanFloat4CL = type { ptr, ptr, ptr, ptr, ptr, ptr }

@_ZTV20b3PrefixScanFloat4CL = dso_local unnamed_addr constant { [4 x ptr] } { [4 x ptr] [ptr null, ptr @_ZTI20b3PrefixScanFloat4CL, ptr @_ZN20b3PrefixScanFloat4CLD1Ev, ptr @_ZN20b3PrefixScanFloat4CLD0Ev] }, align 8
@_ZL25prefixScanKernelsFloat4CL = internal global ptr @.str.7, align 8
@.str = private unnamed_addr constant [72 x i8] c"src/Bullet3OpenCL/ParallelPrimitives/kernels/PrefixScanFloat4Kernels.cl\00", align 1
@.str.1 = private unnamed_addr constant [16 x i8] c"LocalScanKernel\00", align 1
@.str.2 = private unnamed_addr constant [19 x i8] c"TopLevelScanKernel\00", align 1
@.str.3 = private unnamed_addr constant [16 x i8] c"AddOffsetKernel\00", align 1

; Function Attrs: inlinehint mustprogress uwtable
define linkonce_odr dso_local noundef ptr @_ZN13b3OpenCLUtils25compileCLKernelFromStringEP11_cl_contextP13_cl_device_idPKcS5_PiP11_cl_programS5_(ptr noundef %0, ptr noundef %1, ptr noundef %2, ptr noundef %3, ptr noundef %4, ptr noundef %5, ptr noundef %6) #4 comdat align 2 {
  %8 = alloca ptr, align 8
  %9 = alloca ptr, align 8
  %10 = alloca ptr, align 8
  %11 = alloca ptr, align 8
  %12 = alloca ptr, align 8
  %13 = alloca ptr, align 8
  %14 = alloca ptr, align 8
  store ptr %0, ptr %8, align 8, !tbaa !9
  store ptr %1, ptr %9, align 8, !tbaa !11
  store ptr %2, ptr %10, align 8, !tbaa !23
  store ptr %3, ptr %11, align 8, !tbaa !23
  store ptr %4, ptr %12, align 8, !tbaa !47
  store ptr %5, ptr %13, align 8, !tbaa !26
  store ptr %6, ptr %14, align 8, !tbaa !23
  %15 = load ptr, ptr %8, align 8, !tbaa !9
  %16 = load ptr, ptr %9, align 8, !tbaa !11
  %17 = load ptr, ptr %10, align 8, !tbaa !23
  %18 = load ptr, ptr %11, align 8, !tbaa !23
  %19 = load ptr, ptr %12, align 8, !tbaa !47
  %20 = load ptr, ptr %13, align 8, !tbaa !26
  %21 = load ptr, ptr %14, align 8, !tbaa !23
  %22 = call ptr @b3OpenCLUtils_compileCLKernelFromString(ptr noundef %15, ptr noundef %16, ptr noundef %17, ptr noundef %18, ptr noundef %19, ptr noundef %20, ptr noundef %21)
  ret ptr %22
}

; Function Attrs: inlinehint mustprogress uwtable
define linkonce_odr dso_local noundef ptr @_ZN13b3OpenCLUtils26compileCLProgramFromStringEP11_cl_contextP13_cl_device_idPKcPiS5_S5_b(ptr noundef %0, ptr noundef %1, ptr noundef %2, ptr noundef %3, ptr noundef %4, ptr noundef %5, i1 noundef zeroext %6) #4 comdat align 2 {
  %8 = alloca ptr, align 8
  %9 = alloca ptr, align 8
  %10 = alloca ptr, align 8
  %11 = alloca ptr, align 8
  %12 = alloca ptr, align 8
  %13 = alloca ptr, align 8
  %14 = alloca i8, align 1
  store ptr %0, ptr %8, align 8, !tbaa !9
  store ptr %1, ptr %9, align 8, !tbaa !11
  store ptr %2, ptr %10, align 8, !tbaa !23
  store ptr %3, ptr %11, align 8, !tbaa !47
  store ptr %4, ptr %12, align 8, !tbaa !23
  store ptr %5, ptr %13, align 8, !tbaa !23
  %15 = zext i1 %6 to i8
  store i8 %15, ptr %14, align 1, !tbaa !34
  %16 = load ptr, ptr %8, align 8, !tbaa !9
  %17 = load ptr, ptr %9, align 8, !tbaa !11
  %18 = load ptr, ptr %10, align 8, !tbaa !23
  %19 = load ptr, ptr %11, align 8, !tbaa !47
  %20 = load ptr, ptr %12, align 8, !tbaa !23
  %21 = load ptr, ptr %13, align 8, !tbaa !23
  %22 = load i8, ptr %14, align 1, !tbaa !34, !range !45, !noundef !46
  %23 = trunc i8 %22 to i1
  %24 = call ptr @b3OpenCLUtils_compileCLProgramFromString(ptr noundef %16, ptr noundef %17, ptr noundef %18, ptr noundef %19, ptr noundef %20, ptr noundef %21, i1 noundef zeroext %23)
  ret ptr %24
}

; Function Attrs: mustprogress uwtable
define dso_local void @_ZN20b3PrefixScanFloat4CLC2EP11_cl_contextP13_cl_device_idP17_cl_command_queuei(ptr noundef nonnull align 8 dereferenceable(48) %0, ptr noundef %1, ptr noundef %2, ptr noundef %3, i32 noundef %4) unnamed_addr #0 align 2 personality ptr @__gxx_personality_v0 {
  %6 = alloca ptr, align 8
  %7 = alloca ptr, align 8
  %8 = alloca ptr, align 8
  %9 = alloca ptr, align 8
  %10 = alloca i32, align 4
  %11 = alloca ptr, align 8
  %12 = alloca i32, align 4
  %13 = alloca ptr, align 8
  %14 = alloca ptr, align 8
  %15 = alloca i32, align 4
  %16 = alloca ptr, align 8
  store ptr %0, ptr %6, align 8, !tbaa !4
  store ptr %1, ptr %7, align 8, !tbaa !9
  store ptr %2, ptr %8, align 8, !tbaa !11
  store ptr %3, ptr %9, align 8, !tbaa !13
  store i32 %4, ptr %10, align 4, !tbaa !15
  %17 = load ptr, ptr %6, align 8
  store ptr getelementptr inbounds inrange(-16, 16) ({ [4 x ptr] }, ptr @_ZTV20b3PrefixScanFloat4CL, i32 0, i32 0, i32 2), ptr %17, align 8, !tbaa !17
  %18 = getelementptr inbounds nuw %class.b3PrefixScanFloat4CL, ptr %17, i32 0, i32 1
  %19 = load ptr, ptr %9, align 8, !tbaa !13
  store ptr %19, ptr %18, align 8, !tbaa !19
  call void @llvm.lifetime.start.p0(i64 8, ptr %11) #12
  %20 = load ptr, ptr @_ZL25prefixScanKernelsFloat4CL, align 8, !tbaa !23
  store ptr %20, ptr %11, align 8, !tbaa !23
  call void @llvm.lifetime.start.p0(i64 4, ptr %12) #12
  call void @llvm.lifetime.start.p0(i64 8, ptr %13) #12
  store ptr null, ptr %13, align 8, !tbaa !23
  %21 = call noalias noundef nonnull ptr @_Znwm(i64 noundef 56) #13
  %22 = load ptr, ptr %7, align 8, !tbaa !9
  %23 = load ptr, ptr %9, align 8, !tbaa !13
  %24 = load i32, ptr %10, align 4, !tbaa !15
  %25 = sext i32 %24 to i64
  invoke void @_ZN13b3OpenCLArrayI9b3Vector3EC2EP11_cl_contextP17_cl_command_queuemb(ptr noundef nonnull align 8 dereferenceable(50) %21, ptr noundef %22, ptr noundef %23, i64 noundef %25, i1 noundef zeroext true)
          to label %26 unwind label %54

26:                                               ; preds = %5
  %27 = getelementptr inbounds nuw %class.b3PrefixScanFloat4CL, ptr %17, i32 0, i32 5
  store ptr %21, ptr %27, align 8, !tbaa !25
  call void @llvm.lifetime.start.p0(i64 8, ptr %16) #12
  %28 = load ptr, ptr %7, align 8, !tbaa !9
  %29 = load ptr, ptr %8, align 8, !tbaa !11
  %30 = load ptr, ptr %11, align 8, !tbaa !23
  %31 = load ptr, ptr %13, align 8, !tbaa !23
  %32 = call noundef ptr @_ZN13b3OpenCLUtils26compileCLProgramFromStringEP11_cl_contextP13_cl_device_idPKcPiS5_S5_b(ptr noundef %28, ptr noundef %29, ptr noundef %30, ptr noundef %12, ptr noundef %31, ptr noundef @.str, i1 noundef zeroext false)
  store ptr %32, ptr %16, align 8, !tbaa !26
  %33 = load ptr, ptr %7, align 8, !tbaa !9
  %34 = load ptr, ptr %8, align 8, !tbaa !11
  %35 = load ptr, ptr %11, align 8, !tbaa !23
  %36 = load ptr, ptr %16, align 8, !tbaa !26
  %37 = load ptr, ptr %13, align 8, !tbaa !23
  %38 = call noundef ptr @_ZN13b3OpenCLUtils25compileCLKernelFromStringEP11_cl_contextP13_cl_device_idPKcS5_PiP11_cl_programS5_(ptr noundef %33, ptr noundef %34, ptr noundef %35, ptr noundef @.str.1, ptr noundef %12, ptr noundef %36, ptr noundef %37)
  %39 = getelementptr inbounds nuw %class.b3PrefixScanFloat4CL, ptr %17, i32 0, i32 2
  store ptr %38, ptr %39, align 8, !tbaa !28
  %40 = load ptr, ptr %7, align 8, !tbaa !9
  %41 = load ptr, ptr %8, align 8, !tbaa !11
  %42 = load ptr, ptr %11, align 8, !tbaa !23
  %43 = load ptr, ptr %16, align 8, !tbaa !26
  %44 = load ptr, ptr %13, align 8, !tbaa !23
  %45 = call noundef ptr @_ZN13b3OpenCLUtils25compileCLKernelFromStringEP11_cl_contextP13_cl_device_idPKcS5_PiP11_cl_programS5_(ptr noundef %40, ptr noundef %41, ptr noundef %42, ptr noundef @.str.2, ptr noundef %12, ptr noundef %43, ptr noundef %44)
  %46 = getelementptr inbounds nuw %class.b3PrefixScanFloat4CL, ptr %17, i32 0, i32 3
  store ptr %45, ptr %46, align 8, !tbaa !29
  %47 = load ptr, ptr %7, align 8, !tbaa !9
  %48 = load ptr, ptr %8, align 8, !tbaa !11
  %49 = load ptr, ptr %11, align 8, !tbaa !23
  %50 = load ptr, ptr %16, align 8, !tbaa !26
  %51 = load ptr, ptr %13, align 8, !tbaa !23
  %52 = call noundef ptr @_ZN13b3OpenCLUtils25compileCLKernelFromStringEP11_cl_contextP13_cl_device_idPKcS5_PiP11_cl_programS5_(ptr noundef %47, ptr noundef %48, ptr noundef %49, ptr noundef @.str.3, ptr noundef %12, ptr noundef %50, ptr noundef %51)
  %53 = getelementptr inbounds nuw %class.b3PrefixScanFloat4CL, ptr %17, i32 0, i32 4
  store ptr %52, ptr %53, align 8, !tbaa !30
  call void @llvm.lifetime.end.p0(i64 8, ptr %16) #12
  call void @llvm.lifetime.end.p0(i64 8, ptr %13) #12
  call void @llvm.lifetime.end.p0(i64 4, ptr %12) #12
  call void @llvm.lifetime.end.p0(i64 8, ptr %11) #12
  ret void

54:                                               ; preds = %5
  %55 = landingpad { ptr, i32 }
          cleanup
  %56 = extractvalue { ptr, i32 } %55, 0
  store ptr %56, ptr %14, align 8
  %57 = extractvalue { ptr, i32 } %55, 1
  store i32 %57, ptr %15, align 4
  call void @_ZdlPvm(ptr noundef %21, i64 noundef 56) #14
  call void @llvm.lifetime.end.p0(i64 8, ptr %13) #12
  call void @llvm.lifetime.end.p0(i64 4, ptr %12) #12
  call void @llvm.lifetime.end.p0(i64 8, ptr %11) #12
  br label %58

58:                                               ; preds = %54
  %59 = load ptr, ptr %14, align 8
  %60 = load i32, ptr %15, align 4
  %61 = insertvalue { ptr, i32 } poison, ptr %59, 0
  %62 = insertvalue { ptr, i32 } %61, i32 %60, 1
  resume { ptr, i32 } %62
}