; Function Attrs: mustprogress uwtable
define dso_local void @_ZN20b3PrefixScanFloat4CLC2EP11_cl_contextP13_cl_device_idP17_cl_command_queuei(ptr noundef nonnull writeonly align 8 captures(none) dereferenceable(48) initializes((0, 16)) %0, ptr noundef %1, ptr noundef %2, ptr noundef %3, i32 noundef %4) unnamed_addr #0 align 2 personality ptr @__gxx_personality_v0 {
  %6 = alloca i32, align 4
  store ptr getelementptr inbounds nuw inrange(-16, 16) (i8, ptr @_ZTV20b3PrefixScanFloat4CL, i64 16), ptr %0, align 8, !tbaa !4
  %7 = getelementptr inbounds nuw i8, ptr %0, i64 8
  store ptr %3, ptr %7, align 8, !tbaa !7
  call void @llvm.lifetime.start.p0(i64 4, ptr nonnull %6) #15
  %8 = tail call noalias noundef nonnull dereferenceable(56) ptr @_Znwm(i64 noundef 56) #16
  %9 = sext i32 %4 to i64
  invoke void @_ZN13b3OpenCLArrayI9b3Vector3EC2EP11_cl_contextP17_cl_command_queuemb(ptr noundef nonnull align 8 dereferenceable(50) %8, ptr noundef %1, ptr noundef %3, i64 noundef %9, i1 noundef zeroext true)
          to label %10 unwind label %19

10:                                               ; preds = %5
  %11 = getelementptr inbounds nuw i8, ptr %0, i64 40
  store ptr %8, ptr %11, align 8, !tbaa !14
  %12 = call noundef ptr @b3OpenCLUtils_compileCLProgramFromString(ptr noundef %1, ptr noundef %2, ptr noundef nonnull @.str.7, ptr noundef nonnull %6, ptr noundef null, ptr noundef nonnull @.str, i1 noundef zeroext false)
  %13 = call noundef ptr @b3OpenCLUtils_compileCLKernelFromString(ptr noundef %1, ptr noundef %2, ptr noundef nonnull @.str.7, ptr noundef nonnull @.str.1, ptr noundef nonnull %6, ptr noundef %12, ptr noundef null)
  %14 = getelementptr inbounds nuw i8, ptr %0, i64 16
  store ptr %13, ptr %14, align 8, !tbaa !15
  %15 = call noundef ptr @b3OpenCLUtils_compileCLKernelFromString(ptr noundef %1, ptr noundef %2, ptr noundef nonnull @.str.7, ptr noundef nonnull @.str.2, ptr noundef nonnull %6, ptr noundef %12, ptr noundef null)
  %16 = getelementptr inbounds nuw i8, ptr %0, i64 24
  store ptr %15, ptr %16, align 8, !tbaa !16
  %17 = call noundef ptr @b3OpenCLUtils_compileCLKernelFromString(ptr noundef %1, ptr noundef %2, ptr noundef nonnull @.str.7, ptr noundef nonnull @.str.3, ptr noundef nonnull %6, ptr noundef %12, ptr noundef null)
  %18 = getelementptr inbounds nuw i8, ptr %0, i64 32
  store ptr %17, ptr %18, align 8, !tbaa !17
  call void @llvm.lifetime.end.p0(i64 4, ptr nonnull %6) #15
  ret void

19:                                               ; preds = %5
  %20 = landingpad { ptr, i32 }
          cleanup
  tail call void @_ZdlPvm(ptr noundef nonnull %8, i64 noundef 56) #17
  call void @llvm.lifetime.end.p0(i64 4, ptr nonnull %6) #15
  resume { ptr, i32 } %20
}